; Function Attrs: nounwind sspstrong uwtable
define internal fastcc noundef i64 @setup_struct(i64 noundef returned %0, i64 noundef %1) unnamed_addr #0 {
  %3 = tail call fastcc i64 @struct_set_members(i64 noundef %0, i64 noundef %1)
  tail call void @rb_define_alloc_func(i64 noundef %0, ptr noundef nonnull @struct_alloc) #19
  tail call void @rb_define_singleton_method(i64 noundef %0, ptr noundef nonnull @.str.6, ptr noundef nonnull @rb_class_new_instance_pass_kw, i32 noundef -1) #19
  tail call void @rb_define_singleton_method(i64 noundef %0, ptr noundef nonnull @.str.21, ptr noundef nonnull @rb_class_new_instance_pass_kw, i32 noundef -1) #19
  tail call void @rb_define_singleton_method(i64 noundef %0, ptr noundef nonnull @.str.26, ptr noundef nonnull @rb_struct_s_members_m, i32 noundef 0) #19
  tail call void @rb_define_singleton_method(i64 noundef %0, ptr noundef nonnull @.str.12, ptr noundef nonnull @rb_struct_s_inspect, i32 noundef 0) #19
  tail call void @rb_define_singleton_method(i64 noundef %0, ptr noundef nonnull @.str.40, ptr noundef nonnull @rb_struct_s_keyword_init, i32 noundef 0) #19
  %4 = inttoptr i64 %1 to ptr
  %5 = load i64, ptr %4, align 8, !tbaa !11
  %6 = and i64 %5, 8192
  %.not.i = icmp eq i64 %6, 0
  br i1 %.not.i, label %10, label %7

7:                                                ; preds = %2
  %8 = lshr i64 %5, 15
  %9 = and i64 %8, 127
  br label %rb_array_len.exit

10:                                               ; preds = %2
  %11 = getelementptr inbounds nuw i8, ptr %4, i64 16
  %12 = load i64, ptr %11, align 8, !tbaa !13
  br label %rb_array_len.exit

rb_array_len.exit:                                ; preds = %7, %10
  %.0.i = phi i64 [ %9, %7 ], [ %12, %10 ]
  %13 = icmp sgt i64 %.0.i, 0
  br i1 %13, label %.lr.ph, label %._crit_edge

.lr.ph:                                           ; preds = %rb_array_len.exit
  %14 = getelementptr inbounds nuw i8, ptr %4, i64 16
  %15 = getelementptr inbounds nuw i8, ptr %4, i64 32
  br label %16

16:                                               ; preds = %.lr.ph, %rb_long2num_inline.exit
  %.024 = phi i64 [ 0, %.lr.ph ], [ %38, %rb_long2num_inline.exit ]
  %17 = load i64, ptr %4, align 8, !tbaa !11
  %18 = and i64 %17, 8192
  %.not.i.i = icmp eq i64 %18, 0
  br i1 %.not.i.i, label %19, label %RARRAY_AREF.exit

19:                                               ; preds = %16
  %20 = load ptr, ptr %15, align 8, !tbaa !13
  br label %RARRAY_AREF.exit

RARRAY_AREF.exit:                                 ; preds = %16, %19
  %.0.i.i = phi ptr [ %20, %19 ], [ %14, %16 ]
  %21 = getelementptr i64, ptr %.0.i.i, i64 %.024
  %22 = load i64, ptr %21, align 8, !tbaa !7
  %23 = tail call i64 @rb_sym2id(i64 noundef %22) #19
  %24 = add nuw i64 %.024, 4611686018427387904
  %or.cond.i = icmp sgt i64 %24, -1
  br i1 %or.cond.i, label %25, label %28

25:                                               ; preds = %RARRAY_AREF.exit
  %26 = shl nuw nsw i64 %.024, 1
  %27 = or disjoint i64 %26, 1
  br label %rb_long2num_inline.exit

28:                                               ; preds = %RARRAY_AREF.exit
  %29 = tail call i64 @rb_int2big(i64 noundef %.024) #19
  br label %rb_long2num_inline.exit

rb_long2num_inline.exit:                          ; preds = %25, %28
  %.0.i23 = phi i64 [ %27, %25 ], [ %29, %28 ]
  %30 = tail call i64 @rb_sym2id(i64 noundef %22) #19
  %31 = tail call i64 @rb_fix2uint(i64 noundef %.0.i23) #19
  %32 = trunc i64 %31 to i32
  tail call void @rb_add_method_optimized(i64 noundef %0, i64 noundef %30, i32 noundef 3, i32 noundef %32, i32 noundef 1) #19
  %33 = tail call i64 @rb_id_attrset(i64 noundef %23) #19
  %34 = tail call i64 @rb_id2sym(i64 noundef %33) #19
  %35 = tail call i64 @rb_sym2id(i64 noundef %34) #19
  %36 = tail call i64 @rb_fix2uint(i64 noundef %.0.i23) #19
  %37 = trunc i64 %36 to i32
  tail call void @rb_add_method_optimized(i64 noundef %0, i64 noundef %35, i32 noundef 4, i32 noundef %37, i32 noundef 1) #19
  %38 = add nuw nsw i64 %.024, 1
  %exitcond.not = icmp eq i64 %38, %.0.i
  br i1 %exitcond.not, label %._crit_edge, label %16, !llvm.loop !27

._crit_edge:                                      ; preds = %rb_long2num_inline.exit, %rb_array_len.exit
  ret i64 %0
}